; Function Attrs: nounwind uwtable
define internal noundef ptr @readline_set_auto_history(ptr readnone captures(none) %0, ptr noundef %1) #0 {
  %3 = tail call i32 @PyObject_IsTrue(ptr noundef %1) #14
  %4 = icmp slt i32 %3, 0
  br i1 %4, label %6, label %5

5:                                                ; preds = %2
  store i32 %3, ptr @should_auto_add_history, align 4, !tbaa !17
  br label %6

6:                                                ; preds = %2, %5
  %.0 = phi ptr [ null, %2 ], [ @_Py_NoneStruct, %5 ]
  ret ptr %.0
}